
rv32ui-p-or:     file format elf32-littleriscv


Disassembly of section .text:

00002800 <_start>:
    2800:	50b02573          	csrr	a0,hartid
    2804:	00051063          	bnez	a0,2804 <_start+0x4>
    2808:	04000513          	li	a0,64
    280c:	50a53073          	csrc	status,a0

00002810 <test_2>:
    2810:	ff0100b7          	lui	ra,0xff010
    2814:	f0008093          	addi	ra,ra,-256 # ff00ff00 <_end+0xff00d208>
    2818:	0f0f1137          	lui	sp,0xf0f1
    281c:	f0f10113          	addi	sp,sp,-241 # f0f0f0f <_end+0xf0ee217>
    2820:	0020e1b3          	or	gp,ra,sp
    2824:	ff100eb7          	lui	t4,0xff100
    2828:	f0fe8e93          	addi	t4,t4,-241 # ff0fff0f <_end+0xff0fd217>
    282c:	00200e13          	li	t3,2
    2830:	4bd19263          	bne	gp,t4,2cd4 <fail>

00002834 <test_3>:
    2834:	0ff010b7          	lui	ra,0xff01
    2838:	ff008093          	addi	ra,ra,-16 # ff00ff0 <_end+0xfefe2f8>
    283c:	f0f0f137          	lui	sp,0xf0f0f
    2840:	0f010113          	addi	sp,sp,240 # f0f0f0f0 <_end+0xf0f0c3f8>
    2844:	0020e1b3          	or	gp,ra,sp
    2848:	fff10eb7          	lui	t4,0xfff10
    284c:	ff0e8e93          	addi	t4,t4,-16 # fff0fff0 <_end+0xfff0d2f8>
    2850:	00300e13          	li	t3,3
    2854:	49d19063          	bne	gp,t4,2cd4 <fail>

00002858 <test_4>:
    2858:	00ff00b7          	lui	ra,0xff0
    285c:	0ff08093          	addi	ra,ra,255 # ff00ff <_end+0xfed407>
    2860:	0f0f1137          	lui	sp,0xf0f1
    2864:	f0f10113          	addi	sp,sp,-241 # f0f0f0f <_end+0xf0ee217>
    2868:	0020e1b3          	or	gp,ra,sp
    286c:	0fff1eb7          	lui	t4,0xfff1
    2870:	fffe8e93          	addi	t4,t4,-1 # fff0fff <_end+0xffee307>
    2874:	00400e13          	li	t3,4
    2878:	45d19e63          	bne	gp,t4,2cd4 <fail>

0000287c <test_5>:
    287c:	f00ff0b7          	lui	ra,0xf00ff
    2880:	00f08093          	addi	ra,ra,15 # f00ff00f <_end+0xf00fc317>
    2884:	f0f0f137          	lui	sp,0xf0f0f
    2888:	0f010113          	addi	sp,sp,240 # f0f0f0f0 <_end+0xf0f0c3f8>
    288c:	0020e1b3          	or	gp,ra,sp
    2890:	f0fffeb7          	lui	t4,0xf0fff
    2894:	0ffe8e93          	addi	t4,t4,255 # f0fff0ff <_end+0xf0ffc407>
    2898:	00500e13          	li	t3,5
    289c:	43d19c63          	bne	gp,t4,2cd4 <fail>

000028a0 <test_6>:
    28a0:	ff0100b7          	lui	ra,0xff010
    28a4:	f0008093          	addi	ra,ra,-256 # ff00ff00 <_end+0xff00d208>
    28a8:	0f0f1137          	lui	sp,0xf0f1
    28ac:	f0f10113          	addi	sp,sp,-241 # f0f0f0f <_end+0xf0ee217>
    28b0:	0020e0b3          	or	ra,ra,sp
    28b4:	ff100eb7          	lui	t4,0xff100
    28b8:	f0fe8e93          	addi	t4,t4,-241 # ff0fff0f <_end+0xff0fd217>
    28bc:	00600e13          	li	t3,6
    28c0:	41d09a63          	bne	ra,t4,2cd4 <fail>

000028c4 <test_7>:
    28c4:	ff0100b7          	lui	ra,0xff010
    28c8:	f0008093          	addi	ra,ra,-256 # ff00ff00 <_end+0xff00d208>
    28cc:	0f0f1137          	lui	sp,0xf0f1
    28d0:	f0f10113          	addi	sp,sp,-241 # f0f0f0f <_end+0xf0ee217>
    28d4:	0020e133          	or	sp,ra,sp
    28d8:	ff100eb7          	lui	t4,0xff100
    28dc:	f0fe8e93          	addi	t4,t4,-241 # ff0fff0f <_end+0xff0fd217>
    28e0:	00700e13          	li	t3,7
    28e4:	3fd11863          	bne	sp,t4,2cd4 <fail>

000028e8 <test_8>:
    28e8:	ff0100b7          	lui	ra,0xff010
    28ec:	f0008093          	addi	ra,ra,-256 # ff00ff00 <_end+0xff00d208>
    28f0:	0010e0b3          	or	ra,ra,ra
    28f4:	ff010eb7          	lui	t4,0xff010
    28f8:	f00e8e93          	addi	t4,t4,-256 # ff00ff00 <_end+0xff00d208>
    28fc:	00800e13          	li	t3,8
    2900:	3dd09a63          	bne	ra,t4,2cd4 <fail>

00002904 <test_9>:
    2904:	00000213          	li	tp,0
    2908:	ff0100b7          	lui	ra,0xff010
    290c:	f0008093          	addi	ra,ra,-256 # ff00ff00 <_end+0xff00d208>
    2910:	0f0f1137          	lui	sp,0xf0f1
    2914:	f0f10113          	addi	sp,sp,-241 # f0f0f0f <_end+0xf0ee217>
    2918:	0020e1b3          	or	gp,ra,sp
    291c:	00018313          	mv	t1,gp
    2920:	00120213          	addi	tp,tp,1 # 1 <_RAM_START+0x1>
    2924:	00200293          	li	t0,2
    2928:	fe5210e3          	bne	tp,t0,2908 <test_9+0x4>
    292c:	ff100eb7          	lui	t4,0xff100
    2930:	f0fe8e93          	addi	t4,t4,-241 # ff0fff0f <_end+0xff0fd217>
    2934:	00900e13          	li	t3,9
    2938:	39d31e63          	bne	t1,t4,2cd4 <fail>

0000293c <test_10>:
    293c:	00000213          	li	tp,0
    2940:	0ff010b7          	lui	ra,0xff01
    2944:	ff008093          	addi	ra,ra,-16 # ff00ff0 <_end+0xfefe2f8>
    2948:	f0f0f137          	lui	sp,0xf0f0f
    294c:	0f010113          	addi	sp,sp,240 # f0f0f0f0 <_end+0xf0f0c3f8>
    2950:	0020e1b3          	or	gp,ra,sp
    2954:	00000013          	nop
    2958:	00018313          	mv	t1,gp
    295c:	00120213          	addi	tp,tp,1 # 1 <_RAM_START+0x1>
    2960:	00200293          	li	t0,2
    2964:	fc521ee3          	bne	tp,t0,2940 <test_10+0x4>
    2968:	fff10eb7          	lui	t4,0xfff10
    296c:	ff0e8e93          	addi	t4,t4,-16 # fff0fff0 <_end+0xfff0d2f8>
    2970:	00a00e13          	li	t3,10
    2974:	37d31063          	bne	t1,t4,2cd4 <fail>

00002978 <test_11>:
    2978:	00000213          	li	tp,0
    297c:	00ff00b7          	lui	ra,0xff0
    2980:	0ff08093          	addi	ra,ra,255 # ff00ff <_end+0xfed407>
    2984:	0f0f1137          	lui	sp,0xf0f1
    2988:	f0f10113          	addi	sp,sp,-241 # f0f0f0f <_end+0xf0ee217>
    298c:	0020e1b3          	or	gp,ra,sp
    2990:	00000013          	nop
    2994:	00000013          	nop
    2998:	00018313          	mv	t1,gp
    299c:	00120213          	addi	tp,tp,1 # 1 <_RAM_START+0x1>
    29a0:	00200293          	li	t0,2
    29a4:	fc521ce3          	bne	tp,t0,297c <test_11+0x4>
    29a8:	0fff1eb7          	lui	t4,0xfff1
    29ac:	fffe8e93          	addi	t4,t4,-1 # fff0fff <_end+0xffee307>
    29b0:	00b00e13          	li	t3,11
    29b4:	33d31063          	bne	t1,t4,2cd4 <fail>

000029b8 <test_12>:
    29b8:	00000213          	li	tp,0
    29bc:	ff0100b7          	lui	ra,0xff010
    29c0:	f0008093          	addi	ra,ra,-256 # ff00ff00 <_end+0xff00d208>
    29c4:	0f0f1137          	lui	sp,0xf0f1
    29c8:	f0f10113          	addi	sp,sp,-241 # f0f0f0f <_end+0xf0ee217>
    29cc:	0020e1b3          	or	gp,ra,sp
    29d0:	00120213          	addi	tp,tp,1 # 1 <_RAM_START+0x1>
    29d4:	00200293          	li	t0,2
    29d8:	fe5212e3          	bne	tp,t0,29bc <test_12+0x4>
    29dc:	ff100eb7          	lui	t4,0xff100
    29e0:	f0fe8e93          	addi	t4,t4,-241 # ff0fff0f <_end+0xff0fd217>
    29e4:	00c00e13          	li	t3,12
    29e8:	2fd19663          	bne	gp,t4,2cd4 <fail>

000029ec <test_13>:
    29ec:	00000213          	li	tp,0
    29f0:	0ff010b7          	lui	ra,0xff01
    29f4:	ff008093          	addi	ra,ra,-16 # ff00ff0 <_end+0xfefe2f8>
    29f8:	f0f0f137          	lui	sp,0xf0f0f
    29fc:	0f010113          	addi	sp,sp,240 # f0f0f0f0 <_end+0xf0f0c3f8>
    2a00:	00000013          	nop
    2a04:	0020e1b3          	or	gp,ra,sp
    2a08:	00120213          	addi	tp,tp,1 # 1 <_RAM_START+0x1>
    2a0c:	00200293          	li	t0,2
    2a10:	fe5210e3          	bne	tp,t0,29f0 <test_13+0x4>
    2a14:	fff10eb7          	lui	t4,0xfff10
    2a18:	ff0e8e93          	addi	t4,t4,-16 # fff0fff0 <_end+0xfff0d2f8>
    2a1c:	00d00e13          	li	t3,13
    2a20:	2bd19a63          	bne	gp,t4,2cd4 <fail>

00002a24 <test_14>:
    2a24:	00000213          	li	tp,0
    2a28:	00ff00b7          	lui	ra,0xff0
    2a2c:	0ff08093          	addi	ra,ra,255 # ff00ff <_end+0xfed407>
    2a30:	0f0f1137          	lui	sp,0xf0f1
    2a34:	f0f10113          	addi	sp,sp,-241 # f0f0f0f <_end+0xf0ee217>
    2a38:	00000013          	nop
    2a3c:	00000013          	nop
    2a40:	0020e1b3          	or	gp,ra,sp
    2a44:	00120213          	addi	tp,tp,1 # 1 <_RAM_START+0x1>
    2a48:	00200293          	li	t0,2
    2a4c:	fc521ee3          	bne	tp,t0,2a28 <test_14+0x4>
    2a50:	0fff1eb7          	lui	t4,0xfff1
    2a54:	fffe8e93          	addi	t4,t4,-1 # fff0fff <_end+0xffee307>
    2a58:	00e00e13          	li	t3,14
    2a5c:	27d19c63          	bne	gp,t4,2cd4 <fail>

00002a60 <test_15>:
    2a60:	00000213          	li	tp,0
    2a64:	ff0100b7          	lui	ra,0xff010
    2a68:	f0008093          	addi	ra,ra,-256 # ff00ff00 <_end+0xff00d208>
    2a6c:	00000013          	nop
    2a70:	0f0f1137          	lui	sp,0xf0f1
    2a74:	f0f10113          	addi	sp,sp,-241 # f0f0f0f <_end+0xf0ee217>
    2a78:	0020e1b3          	or	gp,ra,sp
    2a7c:	00120213          	addi	tp,tp,1 # 1 <_RAM_START+0x1>
    2a80:	00200293          	li	t0,2
    2a84:	fe5210e3          	bne	tp,t0,2a64 <test_15+0x4>
    2a88:	ff100eb7          	lui	t4,0xff100
    2a8c:	f0fe8e93          	addi	t4,t4,-241 # ff0fff0f <_end+0xff0fd217>
    2a90:	00f00e13          	li	t3,15
    2a94:	25d19063          	bne	gp,t4,2cd4 <fail>

00002a98 <test_16>:
    2a98:	00000213          	li	tp,0
    2a9c:	0ff010b7          	lui	ra,0xff01
    2aa0:	ff008093          	addi	ra,ra,-16 # ff00ff0 <_end+0xfefe2f8>
    2aa4:	00000013          	nop
    2aa8:	f0f0f137          	lui	sp,0xf0f0f
    2aac:	0f010113          	addi	sp,sp,240 # f0f0f0f0 <_end+0xf0f0c3f8>
    2ab0:	00000013          	nop
    2ab4:	0020e1b3          	or	gp,ra,sp
    2ab8:	00120213          	addi	tp,tp,1 # 1 <_RAM_START+0x1>
    2abc:	00200293          	li	t0,2
    2ac0:	fc521ee3          	bne	tp,t0,2a9c <test_16+0x4>
    2ac4:	fff10eb7          	lui	t4,0xfff10
    2ac8:	ff0e8e93          	addi	t4,t4,-16 # fff0fff0 <_end+0xfff0d2f8>
    2acc:	01000e13          	li	t3,16
    2ad0:	21d19263          	bne	gp,t4,2cd4 <fail>

00002ad4 <test_17>:
    2ad4:	00000213          	li	tp,0
    2ad8:	00ff00b7          	lui	ra,0xff0
    2adc:	0ff08093          	addi	ra,ra,255 # ff00ff <_end+0xfed407>
    2ae0:	00000013          	nop
    2ae4:	00000013          	nop
    2ae8:	0f0f1137          	lui	sp,0xf0f1
    2aec:	f0f10113          	addi	sp,sp,-241 # f0f0f0f <_end+0xf0ee217>
    2af0:	0020e1b3          	or	gp,ra,sp
    2af4:	00120213          	addi	tp,tp,1 # 1 <_RAM_START+0x1>
    2af8:	00200293          	li	t0,2
    2afc:	fc521ee3          	bne	tp,t0,2ad8 <test_17+0x4>
    2b00:	0fff1eb7          	lui	t4,0xfff1
    2b04:	fffe8e93          	addi	t4,t4,-1 # fff0fff <_end+0xffee307>
    2b08:	01100e13          	li	t3,17
    2b0c:	1dd19463          	bne	gp,t4,2cd4 <fail>

00002b10 <test_18>:
    2b10:	00000213          	li	tp,0
    2b14:	0f0f1137          	lui	sp,0xf0f1
    2b18:	f0f10113          	addi	sp,sp,-241 # f0f0f0f <_end+0xf0ee217>
    2b1c:	ff0100b7          	lui	ra,0xff010
    2b20:	f0008093          	addi	ra,ra,-256 # ff00ff00 <_end+0xff00d208>
    2b24:	0020e1b3          	or	gp,ra,sp
    2b28:	00120213          	addi	tp,tp,1 # 1 <_RAM_START+0x1>
    2b2c:	00200293          	li	t0,2
    2b30:	fe5212e3          	bne	tp,t0,2b14 <test_18+0x4>
    2b34:	ff100eb7          	lui	t4,0xff100
    2b38:	f0fe8e93          	addi	t4,t4,-241 # ff0fff0f <_end+0xff0fd217>
    2b3c:	01200e13          	li	t3,18
    2b40:	19d19a63          	bne	gp,t4,2cd4 <fail>

00002b44 <test_19>:
    2b44:	00000213          	li	tp,0
    2b48:	f0f0f137          	lui	sp,0xf0f0f
    2b4c:	0f010113          	addi	sp,sp,240 # f0f0f0f0 <_end+0xf0f0c3f8>
    2b50:	0ff010b7          	lui	ra,0xff01
    2b54:	ff008093          	addi	ra,ra,-16 # ff00ff0 <_end+0xfefe2f8>
    2b58:	00000013          	nop
    2b5c:	0020e1b3          	or	gp,ra,sp
    2b60:	00120213          	addi	tp,tp,1 # 1 <_RAM_START+0x1>
    2b64:	00200293          	li	t0,2
    2b68:	fe5210e3          	bne	tp,t0,2b48 <test_19+0x4>
    2b6c:	fff10eb7          	lui	t4,0xfff10
    2b70:	ff0e8e93          	addi	t4,t4,-16 # fff0fff0 <_end+0xfff0d2f8>
    2b74:	01300e13          	li	t3,19
    2b78:	15d19e63          	bne	gp,t4,2cd4 <fail>

00002b7c <test_20>:
    2b7c:	00000213          	li	tp,0
    2b80:	0f0f1137          	lui	sp,0xf0f1
    2b84:	f0f10113          	addi	sp,sp,-241 # f0f0f0f <_end+0xf0ee217>
    2b88:	00ff00b7          	lui	ra,0xff0
    2b8c:	0ff08093          	addi	ra,ra,255 # ff00ff <_end+0xfed407>
    2b90:	00000013          	nop
    2b94:	00000013          	nop
    2b98:	0020e1b3          	or	gp,ra,sp
    2b9c:	00120213          	addi	tp,tp,1 # 1 <_RAM_START+0x1>
    2ba0:	00200293          	li	t0,2
    2ba4:	fc521ee3          	bne	tp,t0,2b80 <test_20+0x4>
    2ba8:	0fff1eb7          	lui	t4,0xfff1
    2bac:	fffe8e93          	addi	t4,t4,-1 # fff0fff <_end+0xffee307>
    2bb0:	01400e13          	li	t3,20
    2bb4:	13d19063          	bne	gp,t4,2cd4 <fail>

00002bb8 <test_21>:
    2bb8:	00000213          	li	tp,0
    2bbc:	0f0f1137          	lui	sp,0xf0f1
    2bc0:	f0f10113          	addi	sp,sp,-241 # f0f0f0f <_end+0xf0ee217>
    2bc4:	00000013          	nop
    2bc8:	ff0100b7          	lui	ra,0xff010
    2bcc:	f0008093          	addi	ra,ra,-256 # ff00ff00 <_end+0xff00d208>
    2bd0:	0020e1b3          	or	gp,ra,sp
    2bd4:	00120213          	addi	tp,tp,1 # 1 <_RAM_START+0x1>
    2bd8:	00200293          	li	t0,2
    2bdc:	fe5210e3          	bne	tp,t0,2bbc <test_21+0x4>
    2be0:	ff100eb7          	lui	t4,0xff100
    2be4:	f0fe8e93          	addi	t4,t4,-241 # ff0fff0f <_end+0xff0fd217>
    2be8:	01500e13          	li	t3,21
    2bec:	0fd19463          	bne	gp,t4,2cd4 <fail>

00002bf0 <test_22>:
    2bf0:	00000213          	li	tp,0
    2bf4:	f0f0f137          	lui	sp,0xf0f0f
    2bf8:	0f010113          	addi	sp,sp,240 # f0f0f0f0 <_end+0xf0f0c3f8>
    2bfc:	00000013          	nop
    2c00:	0ff010b7          	lui	ra,0xff01
    2c04:	ff008093          	addi	ra,ra,-16 # ff00ff0 <_end+0xfefe2f8>
    2c08:	00000013          	nop
    2c0c:	0020e1b3          	or	gp,ra,sp
    2c10:	00120213          	addi	tp,tp,1 # 1 <_RAM_START+0x1>
    2c14:	00200293          	li	t0,2
    2c18:	fc521ee3          	bne	tp,t0,2bf4 <test_22+0x4>
    2c1c:	fff10eb7          	lui	t4,0xfff10
    2c20:	ff0e8e93          	addi	t4,t4,-16 # fff0fff0 <_end+0xfff0d2f8>
    2c24:	01600e13          	li	t3,22
    2c28:	0bd19663          	bne	gp,t4,2cd4 <fail>

00002c2c <test_23>:
    2c2c:	00000213          	li	tp,0
    2c30:	0f0f1137          	lui	sp,0xf0f1
    2c34:	f0f10113          	addi	sp,sp,-241 # f0f0f0f <_end+0xf0ee217>
    2c38:	00000013          	nop
    2c3c:	00000013          	nop
    2c40:	00ff00b7          	lui	ra,0xff0
    2c44:	0ff08093          	addi	ra,ra,255 # ff00ff <_end+0xfed407>
    2c48:	0020e1b3          	or	gp,ra,sp
    2c4c:	00120213          	addi	tp,tp,1 # 1 <_RAM_START+0x1>
    2c50:	00200293          	li	t0,2
    2c54:	fc521ee3          	bne	tp,t0,2c30 <test_23+0x4>
    2c58:	0fff1eb7          	lui	t4,0xfff1
    2c5c:	fffe8e93          	addi	t4,t4,-1 # fff0fff <_end+0xffee307>
    2c60:	01700e13          	li	t3,23
    2c64:	07d19863          	bne	gp,t4,2cd4 <fail>

00002c68 <test_24>:
    2c68:	ff0100b7          	lui	ra,0xff010
    2c6c:	f0008093          	addi	ra,ra,-256 # ff00ff00 <_end+0xff00d208>
    2c70:	00106133          	or	sp,zero,ra
    2c74:	ff010eb7          	lui	t4,0xff010
    2c78:	f00e8e93          	addi	t4,t4,-256 # ff00ff00 <_end+0xff00d208>
    2c7c:	01800e13          	li	t3,24
    2c80:	05d11a63          	bne	sp,t4,2cd4 <fail>

00002c84 <test_25>:
    2c84:	00ff00b7          	lui	ra,0xff0
    2c88:	0ff08093          	addi	ra,ra,255 # ff00ff <_end+0xfed407>
    2c8c:	0000e133          	or	sp,ra,zero
    2c90:	00ff0eb7          	lui	t4,0xff0
    2c94:	0ffe8e93          	addi	t4,t4,255 # ff00ff <_end+0xfed407>
    2c98:	01900e13          	li	t3,25
    2c9c:	03d11c63          	bne	sp,t4,2cd4 <fail>

00002ca0 <test_26>:
    2ca0:	000060b3          	or	ra,zero,zero
    2ca4:	00000e93          	li	t4,0
    2ca8:	01a00e13          	li	t3,26
    2cac:	03d09463          	bne	ra,t4,2cd4 <fail>

00002cb0 <test_27>:
    2cb0:	111110b7          	lui	ra,0x11111
    2cb4:	11108093          	addi	ra,ra,273 # 11111111 <_end+0x1110e419>
    2cb8:	22222137          	lui	sp,0x22222
    2cbc:	22210113          	addi	sp,sp,546 # 22222222 <_end+0x2221f52a>
    2cc0:	0020e033          	or	zero,ra,sp
    2cc4:	00000e93          	li	t4,0
    2cc8:	01b00e13          	li	t3,27
    2ccc:	01d01463          	bne	zero,t4,2cd4 <fail>
    2cd0:	01c01e63          	bne	zero,t3,2cec <pass>

00002cd4 <fail>:
    2cd4:	0ff0000f          	fence
    2cd8:	000e0863          	beqz	t3,2ce8 <fail+0x14>
    2cdc:	001e1e13          	slli	t3,t3,0x1
    2ce0:	001e6e13          	ori	t3,t3,1
    2ce4:	51ee1073          	csrw	tohost,t3
    2ce8:	0000006f          	j	2ce8 <fail+0x14>

00002cec <pass>:
    2cec:	0ff0000f          	fence
    2cf0:	51e0d073          	csrwi	tohost,1
    2cf4:	0000006f          	j	2cf4 <pass+0x8>
