
rv32ui-p-blt:     file format elf32-littleriscv


Disassembly of section .text:

00002800 <_start>:
    2800:	50b02573          	csrr	a0,hartid
    2804:	00051063          	bnez	a0,2804 <_start+0x4>
    2808:	04000513          	li	a0,64
    280c:	50a53073          	csrc	status,a0

00002810 <test_2>:
    2810:	00200e13          	li	t3,2
    2814:	00000093          	li	ra,0
    2818:	00100113          	li	sp,1
    281c:	0020c663          	blt	ra,sp,2828 <test_2+0x18>
    2820:	2bc01863          	bne	zero,t3,2ad0 <fail>
    2824:	01c01663          	bne	zero,t3,2830 <test_3>
    2828:	fe20cee3          	blt	ra,sp,2824 <test_2+0x14>
    282c:	2bc01263          	bne	zero,t3,2ad0 <fail>

00002830 <test_3>:
    2830:	00300e13          	li	t3,3
    2834:	fff00093          	li	ra,-1
    2838:	00100113          	li	sp,1
    283c:	0020c663          	blt	ra,sp,2848 <test_3+0x18>
    2840:	29c01863          	bne	zero,t3,2ad0 <fail>
    2844:	01c01663          	bne	zero,t3,2850 <test_4>
    2848:	fe20cee3          	blt	ra,sp,2844 <test_3+0x14>
    284c:	29c01263          	bne	zero,t3,2ad0 <fail>

00002850 <test_4>:
    2850:	00400e13          	li	t3,4
    2854:	ffe00093          	li	ra,-2
    2858:	fff00113          	li	sp,-1
    285c:	0020c663          	blt	ra,sp,2868 <test_4+0x18>
    2860:	27c01863          	bne	zero,t3,2ad0 <fail>
    2864:	01c01663          	bne	zero,t3,2870 <test_5>
    2868:	fe20cee3          	blt	ra,sp,2864 <test_4+0x14>
    286c:	27c01263          	bne	zero,t3,2ad0 <fail>

00002870 <test_5>:
    2870:	00500e13          	li	t3,5
    2874:	00100093          	li	ra,1
    2878:	00000113          	li	sp,0
    287c:	0020c463          	blt	ra,sp,2884 <test_5+0x14>
    2880:	01c01463          	bne	zero,t3,2888 <test_5+0x18>
    2884:	25c01663          	bne	zero,t3,2ad0 <fail>
    2888:	fe20cee3          	blt	ra,sp,2884 <test_5+0x14>

0000288c <test_6>:
    288c:	00600e13          	li	t3,6
    2890:	00100093          	li	ra,1
    2894:	fff00113          	li	sp,-1
    2898:	0020c463          	blt	ra,sp,28a0 <test_6+0x14>
    289c:	01c01463          	bne	zero,t3,28a4 <test_6+0x18>
    28a0:	23c01863          	bne	zero,t3,2ad0 <fail>
    28a4:	fe20cee3          	blt	ra,sp,28a0 <test_6+0x14>

000028a8 <test_7>:
    28a8:	00700e13          	li	t3,7
    28ac:	fff00093          	li	ra,-1
    28b0:	ffe00113          	li	sp,-2
    28b4:	0020c463          	blt	ra,sp,28bc <test_7+0x14>
    28b8:	01c01463          	bne	zero,t3,28c0 <test_7+0x18>
    28bc:	21c01a63          	bne	zero,t3,2ad0 <fail>
    28c0:	fe20cee3          	blt	ra,sp,28bc <test_7+0x14>

000028c4 <test_8>:
    28c4:	00800e13          	li	t3,8
    28c8:	00100093          	li	ra,1
    28cc:	ffe00113          	li	sp,-2
    28d0:	0020c463          	blt	ra,sp,28d8 <test_8+0x14>
    28d4:	01c01463          	bne	zero,t3,28dc <test_8+0x18>
    28d8:	1fc01c63          	bne	zero,t3,2ad0 <fail>
    28dc:	fe20cee3          	blt	ra,sp,28d8 <test_8+0x14>

000028e0 <test_9>:
    28e0:	00900e13          	li	t3,9
    28e4:	00000213          	li	tp,0
    28e8:	00000093          	li	ra,0
    28ec:	fff00113          	li	sp,-1
    28f0:	1e20c063          	blt	ra,sp,2ad0 <fail>
    28f4:	00120213          	addi	tp,tp,1 # 1 <_RAM_START+0x1>
    28f8:	00200293          	li	t0,2
    28fc:	fe5216e3          	bne	tp,t0,28e8 <test_9+0x8>

00002900 <test_10>:
    2900:	00a00e13          	li	t3,10
    2904:	00000213          	li	tp,0
    2908:	00000093          	li	ra,0
    290c:	fff00113          	li	sp,-1
    2910:	00000013          	nop
    2914:	1a20ce63          	blt	ra,sp,2ad0 <fail>
    2918:	00120213          	addi	tp,tp,1 # 1 <_RAM_START+0x1>
    291c:	00200293          	li	t0,2
    2920:	fe5214e3          	bne	tp,t0,2908 <test_10+0x8>

00002924 <test_11>:
    2924:	00b00e13          	li	t3,11
    2928:	00000213          	li	tp,0
    292c:	00000093          	li	ra,0
    2930:	fff00113          	li	sp,-1
    2934:	00000013          	nop
    2938:	00000013          	nop
    293c:	1820ca63          	blt	ra,sp,2ad0 <fail>
    2940:	00120213          	addi	tp,tp,1 # 1 <_RAM_START+0x1>
    2944:	00200293          	li	t0,2
    2948:	fe5212e3          	bne	tp,t0,292c <test_11+0x8>

0000294c <test_12>:
    294c:	00c00e13          	li	t3,12
    2950:	00000213          	li	tp,0
    2954:	00000093          	li	ra,0
    2958:	00000013          	nop
    295c:	fff00113          	li	sp,-1
    2960:	1620c863          	blt	ra,sp,2ad0 <fail>
    2964:	00120213          	addi	tp,tp,1 # 1 <_RAM_START+0x1>
    2968:	00200293          	li	t0,2
    296c:	fe5214e3          	bne	tp,t0,2954 <test_12+0x8>

00002970 <test_13>:
    2970:	00d00e13          	li	t3,13
    2974:	00000213          	li	tp,0
    2978:	00000093          	li	ra,0
    297c:	00000013          	nop
    2980:	fff00113          	li	sp,-1
    2984:	00000013          	nop
    2988:	1420c463          	blt	ra,sp,2ad0 <fail>
    298c:	00120213          	addi	tp,tp,1 # 1 <_RAM_START+0x1>
    2990:	00200293          	li	t0,2
    2994:	fe5212e3          	bne	tp,t0,2978 <test_13+0x8>

00002998 <test_14>:
    2998:	00e00e13          	li	t3,14
    299c:	00000213          	li	tp,0
    29a0:	00000093          	li	ra,0
    29a4:	00000013          	nop
    29a8:	00000013          	nop
    29ac:	fff00113          	li	sp,-1
    29b0:	1220c063          	blt	ra,sp,2ad0 <fail>
    29b4:	00120213          	addi	tp,tp,1 # 1 <_RAM_START+0x1>
    29b8:	00200293          	li	t0,2
    29bc:	fe5212e3          	bne	tp,t0,29a0 <test_14+0x8>

000029c0 <test_15>:
    29c0:	00f00e13          	li	t3,15
    29c4:	00000213          	li	tp,0
    29c8:	00000093          	li	ra,0
    29cc:	fff00113          	li	sp,-1
    29d0:	1020c063          	blt	ra,sp,2ad0 <fail>
    29d4:	00120213          	addi	tp,tp,1 # 1 <_RAM_START+0x1>
    29d8:	00200293          	li	t0,2
    29dc:	fe5216e3          	bne	tp,t0,29c8 <test_15+0x8>

000029e0 <test_16>:
    29e0:	01000e13          	li	t3,16
    29e4:	00000213          	li	tp,0
    29e8:	00000093          	li	ra,0
    29ec:	fff00113          	li	sp,-1
    29f0:	00000013          	nop
    29f4:	0c20ce63          	blt	ra,sp,2ad0 <fail>
    29f8:	00120213          	addi	tp,tp,1 # 1 <_RAM_START+0x1>
    29fc:	00200293          	li	t0,2
    2a00:	fe5214e3          	bne	tp,t0,29e8 <test_16+0x8>

00002a04 <test_17>:
    2a04:	01100e13          	li	t3,17
    2a08:	00000213          	li	tp,0
    2a0c:	00000093          	li	ra,0
    2a10:	fff00113          	li	sp,-1
    2a14:	00000013          	nop
    2a18:	00000013          	nop
    2a1c:	0a20ca63          	blt	ra,sp,2ad0 <fail>
    2a20:	00120213          	addi	tp,tp,1 # 1 <_RAM_START+0x1>
    2a24:	00200293          	li	t0,2
    2a28:	fe5212e3          	bne	tp,t0,2a0c <test_17+0x8>

00002a2c <test_18>:
    2a2c:	01200e13          	li	t3,18
    2a30:	00000213          	li	tp,0
    2a34:	00000093          	li	ra,0
    2a38:	00000013          	nop
    2a3c:	fff00113          	li	sp,-1
    2a40:	0820c863          	blt	ra,sp,2ad0 <fail>
    2a44:	00120213          	addi	tp,tp,1 # 1 <_RAM_START+0x1>
    2a48:	00200293          	li	t0,2
    2a4c:	fe5214e3          	bne	tp,t0,2a34 <test_18+0x8>

00002a50 <test_19>:
    2a50:	01300e13          	li	t3,19
    2a54:	00000213          	li	tp,0
    2a58:	00000093          	li	ra,0
    2a5c:	00000013          	nop
    2a60:	fff00113          	li	sp,-1
    2a64:	00000013          	nop
    2a68:	0620c463          	blt	ra,sp,2ad0 <fail>
    2a6c:	00120213          	addi	tp,tp,1 # 1 <_RAM_START+0x1>
    2a70:	00200293          	li	t0,2
    2a74:	fe5212e3          	bne	tp,t0,2a58 <test_19+0x8>

00002a78 <test_20>:
    2a78:	01400e13          	li	t3,20
    2a7c:	00000213          	li	tp,0
    2a80:	00000093          	li	ra,0
    2a84:	00000013          	nop
    2a88:	00000013          	nop
    2a8c:	fff00113          	li	sp,-1
    2a90:	0420c063          	blt	ra,sp,2ad0 <fail>
    2a94:	00120213          	addi	tp,tp,1 # 1 <_RAM_START+0x1>
    2a98:	00200293          	li	t0,2
    2a9c:	fe5212e3          	bne	tp,t0,2a80 <test_20+0x8>

00002aa0 <test_21>:
    2aa0:	00100093          	li	ra,1
    2aa4:	00104a63          	bgtz	ra,2ab8 <test_21+0x18>
    2aa8:	00108093          	addi	ra,ra,1
    2aac:	00108093          	addi	ra,ra,1
    2ab0:	00108093          	addi	ra,ra,1
    2ab4:	00108093          	addi	ra,ra,1
    2ab8:	00108093          	addi	ra,ra,1
    2abc:	00108093          	addi	ra,ra,1
    2ac0:	00300e93          	li	t4,3
    2ac4:	01500e13          	li	t3,21
    2ac8:	01d09463          	bne	ra,t4,2ad0 <fail>
    2acc:	01c01e63          	bne	zero,t3,2ae8 <pass>

00002ad0 <fail>:
    2ad0:	0ff0000f          	fence
    2ad4:	000e0863          	beqz	t3,2ae4 <fail+0x14>
    2ad8:	001e1e13          	slli	t3,t3,0x1
    2adc:	001e6e13          	ori	t3,t3,1
    2ae0:	51ee1073          	csrw	tohost,t3
    2ae4:	0000006f          	j	2ae4 <fail+0x14>

00002ae8 <pass>:
    2ae8:	0ff0000f          	fence
    2aec:	51e0d073          	csrwi	tohost,1
    2af0:	0000006f          	j	2af0 <pass+0x8>
