
rv32ui-p-slli:     file format elf32-littleriscv


Disassembly of section .text:

00002800 <_start>:
    2800:	50b02573          	csrr	a0,hartid
    2804:	00051063          	bnez	a0,2804 <_start+0x4>
    2808:	04000513          	li	a0,64
    280c:	50a53073          	csrc	status,a0

00002810 <test_2>:
    2810:	00100093          	li	ra,1
    2814:	00009193          	slli	gp,ra,0x0
    2818:	00100e93          	li	t4,1
    281c:	00200e13          	li	t3,2
    2820:	27d19a63          	bne	gp,t4,2a94 <fail>

00002824 <test_3>:
    2824:	00100093          	li	ra,1
    2828:	00109193          	slli	gp,ra,0x1
    282c:	00200e93          	li	t4,2
    2830:	00300e13          	li	t3,3
    2834:	27d19063          	bne	gp,t4,2a94 <fail>

00002838 <test_4>:
    2838:	00100093          	li	ra,1
    283c:	00709193          	slli	gp,ra,0x7
    2840:	08000e93          	li	t4,128
    2844:	00400e13          	li	t3,4
    2848:	25d19663          	bne	gp,t4,2a94 <fail>

0000284c <test_5>:
    284c:	00100093          	li	ra,1
    2850:	00e09193          	slli	gp,ra,0xe
    2854:	00004eb7          	lui	t4,0x4
    2858:	00500e13          	li	t3,5
    285c:	23d19c63          	bne	gp,t4,2a94 <fail>

00002860 <test_6>:
    2860:	00100093          	li	ra,1
    2864:	01f09193          	slli	gp,ra,0x1f
    2868:	80000eb7          	lui	t4,0x80000
    286c:	00600e13          	li	t3,6
    2870:	23d19263          	bne	gp,t4,2a94 <fail>

00002874 <test_7>:
    2874:	fff00093          	li	ra,-1
    2878:	00009193          	slli	gp,ra,0x0
    287c:	fff00e93          	li	t4,-1
    2880:	00700e13          	li	t3,7
    2884:	21d19863          	bne	gp,t4,2a94 <fail>

00002888 <test_8>:
    2888:	fff00093          	li	ra,-1
    288c:	00109193          	slli	gp,ra,0x1
    2890:	ffe00e93          	li	t4,-2
    2894:	00800e13          	li	t3,8
    2898:	1fd19e63          	bne	gp,t4,2a94 <fail>

0000289c <test_9>:
    289c:	fff00093          	li	ra,-1
    28a0:	00709193          	slli	gp,ra,0x7
    28a4:	f8000e93          	li	t4,-128
    28a8:	00900e13          	li	t3,9
    28ac:	1fd19463          	bne	gp,t4,2a94 <fail>

000028b0 <test_10>:
    28b0:	fff00093          	li	ra,-1
    28b4:	00e09193          	slli	gp,ra,0xe
    28b8:	ffffceb7          	lui	t4,0xffffc
    28bc:	00a00e13          	li	t3,10
    28c0:	1dd19a63          	bne	gp,t4,2a94 <fail>

000028c4 <test_11>:
    28c4:	fff00093          	li	ra,-1
    28c8:	01f09193          	slli	gp,ra,0x1f
    28cc:	80000eb7          	lui	t4,0x80000
    28d0:	00b00e13          	li	t3,11
    28d4:	1dd19063          	bne	gp,t4,2a94 <fail>

000028d8 <test_12>:
    28d8:	212120b7          	lui	ra,0x21212
    28dc:	12108093          	addi	ra,ra,289 # 21212121 <_end+0x2120f669>
    28e0:	00009193          	slli	gp,ra,0x0
    28e4:	21212eb7          	lui	t4,0x21212
    28e8:	121e8e93          	addi	t4,t4,289 # 21212121 <_end+0x2120f669>
    28ec:	00c00e13          	li	t3,12
    28f0:	1bd19263          	bne	gp,t4,2a94 <fail>

000028f4 <test_13>:
    28f4:	212120b7          	lui	ra,0x21212
    28f8:	12108093          	addi	ra,ra,289 # 21212121 <_end+0x2120f669>
    28fc:	00109193          	slli	gp,ra,0x1
    2900:	42424eb7          	lui	t4,0x42424
    2904:	242e8e93          	addi	t4,t4,578 # 42424242 <_end+0x4242178a>
    2908:	00d00e13          	li	t3,13
    290c:	19d19463          	bne	gp,t4,2a94 <fail>

00002910 <test_14>:
    2910:	212120b7          	lui	ra,0x21212
    2914:	12108093          	addi	ra,ra,289 # 21212121 <_end+0x2120f669>
    2918:	00709193          	slli	gp,ra,0x7
    291c:	90909eb7          	lui	t4,0x90909
    2920:	080e8e93          	addi	t4,t4,128 # 90909080 <_end+0x909065c8>
    2924:	00e00e13          	li	t3,14
    2928:	17d19663          	bne	gp,t4,2a94 <fail>

0000292c <test_15>:
    292c:	212120b7          	lui	ra,0x21212
    2930:	12108093          	addi	ra,ra,289 # 21212121 <_end+0x2120f669>
    2934:	00e09193          	slli	gp,ra,0xe
    2938:	48484eb7          	lui	t4,0x48484
    293c:	00f00e13          	li	t3,15
    2940:	15d19a63          	bne	gp,t4,2a94 <fail>

00002944 <test_16>:
    2944:	212120b7          	lui	ra,0x21212
    2948:	12108093          	addi	ra,ra,289 # 21212121 <_end+0x2120f669>
    294c:	01f09193          	slli	gp,ra,0x1f
    2950:	80000eb7          	lui	t4,0x80000
    2954:	01000e13          	li	t3,16
    2958:	13d19e63          	bne	gp,t4,2a94 <fail>

0000295c <test_17>:
    295c:	00100093          	li	ra,1
    2960:	00709093          	slli	ra,ra,0x7
    2964:	08000e93          	li	t4,128
    2968:	01100e13          	li	t3,17
    296c:	13d09463          	bne	ra,t4,2a94 <fail>

00002970 <test_18>:
    2970:	00000213          	li	tp,0
    2974:	00100093          	li	ra,1
    2978:	00709193          	slli	gp,ra,0x7
    297c:	00018313          	mv	t1,gp
    2980:	00120213          	addi	tp,tp,1 # 1 <_RAM_START+0x1>
    2984:	00200293          	li	t0,2
    2988:	fe5216e3          	bne	tp,t0,2974 <test_18+0x4>
    298c:	08000e93          	li	t4,128
    2990:	01200e13          	li	t3,18
    2994:	11d31063          	bne	t1,t4,2a94 <fail>

00002998 <test_19>:
    2998:	00000213          	li	tp,0
    299c:	00100093          	li	ra,1
    29a0:	00e09193          	slli	gp,ra,0xe
    29a4:	00000013          	nop
    29a8:	00018313          	mv	t1,gp
    29ac:	00120213          	addi	tp,tp,1 # 1 <_RAM_START+0x1>
    29b0:	00200293          	li	t0,2
    29b4:	fe5214e3          	bne	tp,t0,299c <test_19+0x4>
    29b8:	00004eb7          	lui	t4,0x4
    29bc:	01300e13          	li	t3,19
    29c0:	0dd31a63          	bne	t1,t4,2a94 <fail>

000029c4 <test_20>:
    29c4:	00000213          	li	tp,0
    29c8:	00100093          	li	ra,1
    29cc:	01f09193          	slli	gp,ra,0x1f
    29d0:	00000013          	nop
    29d4:	00000013          	nop
    29d8:	00018313          	mv	t1,gp
    29dc:	00120213          	addi	tp,tp,1 # 1 <_RAM_START+0x1>
    29e0:	00200293          	li	t0,2
    29e4:	fe5212e3          	bne	tp,t0,29c8 <test_20+0x4>
    29e8:	80000eb7          	lui	t4,0x80000
    29ec:	01400e13          	li	t3,20
    29f0:	0bd31263          	bne	t1,t4,2a94 <fail>

000029f4 <test_21>:
    29f4:	00000213          	li	tp,0
    29f8:	00100093          	li	ra,1
    29fc:	00709193          	slli	gp,ra,0x7
    2a00:	00120213          	addi	tp,tp,1 # 1 <_RAM_START+0x1>
    2a04:	00200293          	li	t0,2
    2a08:	fe5218e3          	bne	tp,t0,29f8 <test_21+0x4>
    2a0c:	08000e93          	li	t4,128
    2a10:	01500e13          	li	t3,21
    2a14:	09d19063          	bne	gp,t4,2a94 <fail>

00002a18 <test_22>:
    2a18:	00000213          	li	tp,0
    2a1c:	00100093          	li	ra,1
    2a20:	00000013          	nop
    2a24:	00e09193          	slli	gp,ra,0xe
    2a28:	00120213          	addi	tp,tp,1 # 1 <_RAM_START+0x1>
    2a2c:	00200293          	li	t0,2
    2a30:	fe5216e3          	bne	tp,t0,2a1c <test_22+0x4>
    2a34:	00004eb7          	lui	t4,0x4
    2a38:	01600e13          	li	t3,22
    2a3c:	05d19c63          	bne	gp,t4,2a94 <fail>

00002a40 <test_23>:
    2a40:	00000213          	li	tp,0
    2a44:	00100093          	li	ra,1
    2a48:	00000013          	nop
    2a4c:	00000013          	nop
    2a50:	01f09193          	slli	gp,ra,0x1f
    2a54:	00120213          	addi	tp,tp,1 # 1 <_RAM_START+0x1>
    2a58:	00200293          	li	t0,2
    2a5c:	fe5214e3          	bne	tp,t0,2a44 <test_23+0x4>
    2a60:	80000eb7          	lui	t4,0x80000
    2a64:	01700e13          	li	t3,23
    2a68:	03d19663          	bne	gp,t4,2a94 <fail>

00002a6c <test_24>:
    2a6c:	01f01093          	slli	ra,zero,0x1f
    2a70:	00000e93          	li	t4,0
    2a74:	01800e13          	li	t3,24
    2a78:	01d09e63          	bne	ra,t4,2a94 <fail>

00002a7c <test_25>:
    2a7c:	02100093          	li	ra,33
    2a80:	01409013          	slli	zero,ra,0x14
    2a84:	00000e93          	li	t4,0
    2a88:	01900e13          	li	t3,25
    2a8c:	01d01463          	bne	zero,t4,2a94 <fail>
    2a90:	01c01e63          	bne	zero,t3,2aac <pass>

00002a94 <fail>:
    2a94:	0ff0000f          	fence
    2a98:	000e0863          	beqz	t3,2aa8 <fail+0x14>
    2a9c:	001e1e13          	slli	t3,t3,0x1
    2aa0:	001e6e13          	ori	t3,t3,1
    2aa4:	51ee1073          	csrw	tohost,t3
    2aa8:	0000006f          	j	2aa8 <fail+0x14>

00002aac <pass>:
    2aac:	0ff0000f          	fence
    2ab0:	51e0d073          	csrwi	tohost,1
    2ab4:	0000006f          	j	2ab4 <pass+0x8>
