
32-bit-math.riscv:     file format elf32-littleriscv


Disassembly of section .text:

00002000 <_start>:
    2000:	00000013          	nop
    2004:	00000113          	li	sp,0
    2008:	0000a137          	lui	sp,0xa
    200c:	12c000ef          	jal	ra,2138 <main>
    2010:	00100073          	ebreak

00002014 <_interrupt_handler>:
    2014:	f7010113          	addi	sp,sp,-144 # 9f70 <kstacktop+0x3f70>
    2018:	08212623          	sw	sp,140(sp)
    201c:	08112423          	sw	ra,136(sp)
    2020:	08312223          	sw	gp,132(sp)
    2024:	08412023          	sw	tp,128(sp)
    2028:	06512e23          	sw	t0,124(sp)
    202c:	06612c23          	sw	t1,120(sp)
    2030:	06712a23          	sw	t2,116(sp)
    2034:	06812823          	sw	s0,112(sp)
    2038:	06912623          	sw	s1,108(sp)
    203c:	06a12423          	sw	a0,104(sp)
    2040:	06b12223          	sw	a1,100(sp)
    2044:	06c12023          	sw	a2,96(sp)
    2048:	04d12e23          	sw	a3,92(sp)
    204c:	04e12c23          	sw	a4,88(sp)
    2050:	04f12a23          	sw	a5,84(sp)
    2054:	05012823          	sw	a6,80(sp)
    2058:	05112623          	sw	a7,76(sp)
    205c:	05212423          	sw	s2,72(sp)
    2060:	05312223          	sw	s3,68(sp)
    2064:	05412023          	sw	s4,64(sp)
    2068:	03512e23          	sw	s5,60(sp)
    206c:	03612c23          	sw	s6,56(sp)
    2070:	03712a23          	sw	s7,52(sp)
    2074:	03812823          	sw	s8,48(sp)
    2078:	03912623          	sw	s9,44(sp)
    207c:	03a12423          	sw	s10,40(sp)
    2080:	03b12223          	sw	s11,36(sp)
    2084:	03c12023          	sw	t3,32(sp)
    2088:	01d12e23          	sw	t4,28(sp)
    208c:	01e12c23          	sw	t5,24(sp)
    2090:	01f12a23          	sw	t6,20(sp)
    2094:	088000ef          	jal	ra,211c <Timer0ISR>
    2098:	08c12103          	lw	sp,140(sp)
    209c:	08812083          	lw	ra,136(sp)
    20a0:	08412183          	lw	gp,132(sp)
    20a4:	08012203          	lw	tp,128(sp)
    20a8:	07c12283          	lw	t0,124(sp)
    20ac:	07812303          	lw	t1,120(sp)
    20b0:	07412383          	lw	t2,116(sp)
    20b4:	07012403          	lw	s0,112(sp)
    20b8:	06c12483          	lw	s1,108(sp)
    20bc:	06812503          	lw	a0,104(sp)
    20c0:	06412583          	lw	a1,100(sp)
    20c4:	06012603          	lw	a2,96(sp)
    20c8:	05c12683          	lw	a3,92(sp)
    20cc:	05812703          	lw	a4,88(sp)
    20d0:	05412783          	lw	a5,84(sp)
    20d4:	05012803          	lw	a6,80(sp)
    20d8:	04c12883          	lw	a7,76(sp)
    20dc:	04812903          	lw	s2,72(sp)
    20e0:	04412983          	lw	s3,68(sp)
    20e4:	04012a03          	lw	s4,64(sp)
    20e8:	03c12a83          	lw	s5,60(sp)
    20ec:	03812b03          	lw	s6,56(sp)
    20f0:	03412b83          	lw	s7,52(sp)
    20f4:	03012c03          	lw	s8,48(sp)
    20f8:	02c12c83          	lw	s9,44(sp)
    20fc:	02812d03          	lw	s10,40(sp)
    2100:	02412d83          	lw	s11,36(sp)
    2104:	02012e03          	lw	t3,32(sp)
    2108:	01c12e83          	lw	t4,28(sp)
    210c:	01812f03          	lw	t5,24(sp)
    2110:	01412f83          	lw	t6,20(sp)
    2114:	09010113          	addi	sp,sp,144
    2118:	10200073          	sret

0000211c <Timer0ISR>:
    211c:	00008067          	ret

00002120 <add>:
    2120:	00b50533          	add	a0,a0,a1
    2124:	00008067          	ret

00002128 <mul>:
    2128:	02b50533          	mul	a0,a0,a1
    212c:	00008067          	ret

00002130 <div>:
    2130:	02b55533          	divu	a0,a0,a1
    2134:	00008067          	ret

00002138 <main>:
    2138:	fe010113          	addi	sp,sp,3000
    213c:	00112e23          	sw	ra,28(sp)
    2140:	0000b7b7          	lui	a5,0xb
    2144:	87578793          	addi	a5,a5,-1931 # a875 <kstacktop+0x4875>
    2148:	00f12023          	sw	a5,0(sp)
    214c:	000047b7          	lui	a5,0x4
    2150:	8e778793          	addi	a5,a5,-1817 # 38e7 <end+0x1753>
    2154:	00f12223          	sw	a5,4(sp)
    2158:	00012503          	lw	a0,0(sp)
    215c:	00412583          	lw	a1,4(sp)
    2160:	fc1ff0ef          	jal	ra,2120 <add>
    2164:	00a12423          	sw	a0,8(sp)
    2168:	00012503          	lw	a0,0(sp)
    216c:	00812583          	lw	a1,8(sp)
    2170:	fb9ff0ef          	jal	ra,2128 <mul>
    2174:	00a12223          	sw	a0,4(sp)
    2178:	00412503          	lw	a0,4(sp)
    217c:	00812583          	lw	a1,8(sp)
    2180:	fb1ff0ef          	jal	ra,2130 <div>
    2184:	00a12623          	sw	a0,12(sp)
    2188:	01c12083          	lw	ra,28(sp)
    218c:	02010113          	addi	sp,sp,32
    2190:	00008067          	ret
